target datalayout = "e-m:e-p270:32:32-p271:32:32-p272:64:64-i64:64-i128:128-f80:128-n8:16:32:64-S128"
target triple = "x86_64-pc-linux-gnu"

%"class.Assimp::Ogre::IVertexData" = type { i32, %"class.std::vector", %"class.std::map", %"class.std::map.6" }
%"class.std::vector" = type { %"struct.std::_Vector_base" }
%"struct.std::_Vector_base" = type { %"struct.std::_Vector_base<Assimp::Ogre::VertexBoneAssignment, std::allocator<Assimp::Ogre::VertexBoneAssignment>>::_Vector_impl" }
%"struct.std::_Vector_base<Assimp::Ogre::VertexBoneAssignment, std::allocator<Assimp::Ogre::VertexBoneAssignment>>::_Vector_impl" = type { %"struct.std::_Vector_base<Assimp::Ogre::VertexBoneAssignment, std::allocator<Assimp::Ogre::VertexBoneAssignment>>::_Vector_impl_data" }
%"struct.std::_Vector_base<Assimp::Ogre::VertexBoneAssignment, std::allocator<Assimp::Ogre::VertexBoneAssignment>>::_Vector_impl_data" = type { ptr, ptr, ptr }
%"class.std::map" = type { %"class.std::_Rb_tree" }
%"class.std::_Rb_tree" = type { %"struct.std::_Rb_tree<unsigned int, std::pair<const unsigned int, std::vector<unsigned int>>, std::_Select1st<std::pair<const unsigned int, std::vector<unsigned int>>>, std::less<unsigned int>>::_Rb_tree_impl" }
%"struct.std::_Rb_tree<unsigned int, std::pair<const unsigned int, std::vector<unsigned int>>, std::_Select1st<std::pair<const unsigned int, std::vector<unsigned int>>>, std::less<unsigned int>>::_Rb_tree_impl" = type { [8 x i8], %"struct.std::_Rb_tree_header" }
%"struct.std::_Rb_tree_header" = type { %"struct.std::_Rb_tree_node_base", i64 }
%"struct.std::_Rb_tree_node_base" = type { i32, ptr, ptr, ptr }
%"class.std::map.6" = type { %"class.std::_Rb_tree.7" }
%"class.std::_Rb_tree.7" = type { %"struct.std::_Rb_tree<unsigned int, std::pair<const unsigned int, std::vector<Assimp::Ogre::VertexBoneAssignment>>, std::_Select1st<std::pair<const unsigned int, std::vector<Assimp::Ogre::VertexBoneAssignment>>>, std::less<unsigned int>>::_Rb_tree_impl" }
%"struct.std::_Rb_tree<unsigned int, std::pair<const unsigned int, std::vector<Assimp::Ogre::VertexBoneAssignment>>, std::_Select1st<std::pair<const unsigned int, std::vector<Assimp::Ogre::VertexBoneAssignment>>>, std::less<unsigned int>>::_Rb_tree_impl" = type { [8 x i8], %"struct.std::_Rb_tree_header" }
%"class.Assimp::Ogre::VertexData" = type { %"class.Assimp::Ogre::IVertexData", %"class.std::vector.32", %"class.std::map.37" }
%"class.std::vector.32" = type { %"struct.std::_Vector_base.33" }
%"struct.std::_Vector_base.33" = type { %"struct.std::_Vector_base<Assimp::Ogre::VertexElement, std::allocator<Assimp::Ogre::VertexElement>>::_Vector_impl" }
%"struct.std::_Vector_base<Assimp::Ogre::VertexElement, std::allocator<Assimp::Ogre::VertexElement>>::_Vector_impl" = type { %"struct.std::_Vector_base<Assimp::Ogre::VertexElement, std::allocator<Assimp::Ogre::VertexElement>>::_Vector_impl_data" }
%"struct.std::_Vector_base<Assimp::Ogre::VertexElement, std::allocator<Assimp::Ogre::VertexElement>>::_Vector_impl_data" = type { ptr, ptr, ptr }
%"class.std::map.37" = type { %"class.std::_Rb_tree.38" }
%"class.std::_Rb_tree.38" = type { %"struct.std::_Rb_tree<unsigned short, std::pair<const unsigned short, std::shared_ptr<Assimp::MemoryIOStream>>, std::_Select1st<std::pair<const unsigned short, std::shared_ptr<Assimp::MemoryIOStream>>>, std::less<unsigned short>>::_Rb_tree_impl" }
%"struct.std::_Rb_tree<unsigned short, std::pair<const unsigned short, std::shared_ptr<Assimp::MemoryIOStream>>, std::_Select1st<std::pair<const unsigned short, std::shared_ptr<Assimp::MemoryIOStream>>>, std::less<unsigned short>>::_Rb_tree_impl" = type { [8 x i8], %"struct.std::_Rb_tree_header" }

; Function Attrs: mustprogress nounwind uwtable
define linkonce_odr hidden void @_ZNSt12_Destroy_auxILb1EE9__destroyIPN6Assimp4Ogre13VertexElementEEEvT_S6_(ptr noundef %0, ptr noundef %1) #0 comdat align 2 {
  %3 = alloca ptr, align 8
  %4 = alloca ptr, align 8
  store ptr %0, ptr %3, align 8
  store ptr %1, ptr %4, align 8
  ret void
}

; Function Attrs: inlinehint mustprogress uwtable
define linkonce_odr hidden void @_ZSt8_DestroyIPN6Assimp4Ogre13VertexElementEEvT_S4_(ptr noundef %0, ptr noundef %1) #12 comdat {
  %3 = alloca ptr, align 8
  %4 = alloca ptr, align 8
  store ptr %0, ptr %3, align 8
  store ptr %1, ptr %4, align 8
  %5 = load ptr, ptr %3, align 8
  %6 = load ptr, ptr %4, align 8
  call void @_ZNSt12_Destroy_auxILb1EE9__destroyIPN6Assimp4Ogre13VertexElementEEEvT_S6_(ptr noundef %5, ptr noundef %6)
  ret void
}

; Function Attrs: mustprogress nounwind uwtable
define linkonce_odr hidden noundef ptr @_ZNKSt8_Rb_treeItSt4pairIKtSt10shared_ptrIN6Assimp14MemoryIOStreamEEESt10_Select1stIS6_ESt4lessItESaIS6_EE9_M_mbeginEv(ptr noundef nonnull align 8 dereferenceable(48) %0) #0 comdat align 2 {
  %2 = alloca ptr, align 8
  store ptr %0, ptr %2, align 8
  %3 = load ptr, ptr %2, align 8
  %4 = getelementptr inbounds nuw %"class.std::_Rb_tree.38", ptr %3, i32 0, i32 0
  %5 = getelementptr inbounds i8, ptr %4, i64 8
  %6 = getelementptr inbounds nuw %"struct.std::_Rb_tree_header", ptr %5, i32 0, i32 0
  %7 = getelementptr inbounds nuw %"struct.std::_Rb_tree_node_base", ptr %6, i32 0, i32 1
  %8 = load ptr, ptr %7, align 8
  ret ptr %8
}

; Function Attrs: inlinehint mustprogress uwtable
define linkonce_odr hidden void @_ZSt8_DestroyIPN6Assimp4Ogre13VertexElementES2_EvT_S4_RSaIT0_E(ptr noundef %0, ptr noundef %1, ptr noundef nonnull align 1 dereferenceable(1) %2) #12 comdat {
  %4 = alloca ptr, align 8
  %5 = alloca ptr, align 8
  %6 = alloca ptr, align 8
  store ptr %0, ptr %4, align 8
  store ptr %1, ptr %5, align 8
  store ptr %2, ptr %6, align 8
  %7 = load ptr, ptr %4, align 8
  %8 = load ptr, ptr %5, align 8
  call void @_ZSt8_DestroyIPN6Assimp4Ogre13VertexElementEEvT_S4_(ptr noundef %7, ptr noundef %8)
  ret void
}

; Function Attrs: mustprogress nounwind uwtable
define linkonce_odr hidden noundef nonnull align 1 dereferenceable(1) ptr @_ZNSt12_Vector_baseIN6Assimp4Ogre13VertexElementESaIS2_EE19_M_get_Tp_allocatorEv(ptr noundef nonnull align 8 dereferenceable(24) %0) #0 comdat align 2 {
  %2 = alloca ptr, align 8
  store ptr %0, ptr %2, align 8
  %3 = load ptr, ptr %2, align 8
  %4 = getelementptr inbounds nuw %"struct.std::_Vector_base.33", ptr %3, i32 0, i32 0
  ret ptr %4
}

; Function Attrs: mustprogress nounwind uwtable
define linkonce_odr void @_ZNSt15_Rb_tree_header8_M_resetEv(ptr noundef nonnull align 8 dereferenceable(40) %0) #0 comdat align 2 {
  %2 = alloca ptr, align 8
  store ptr %0, ptr %2, align 8
  %3 = load ptr, ptr %2, align 8
  %4 = getelementptr inbounds nuw %"struct.std::_Rb_tree_header", ptr %3, i32 0, i32 0
  %5 = getelementptr inbounds nuw %"struct.std::_Rb_tree_node_base", ptr %4, i32 0, i32 1
  store ptr null, ptr %5, align 8
  %6 = getelementptr inbounds nuw %"struct.std::_Rb_tree_header", ptr %3, i32 0, i32 0
  %7 = getelementptr inbounds nuw %"struct.std::_Rb_tree_header", ptr %3, i32 0, i32 0
  %8 = getelementptr inbounds nuw %"struct.std::_Rb_tree_node_base", ptr %7, i32 0, i32 2
  store ptr %6, ptr %8, align 8
  %9 = getelementptr inbounds nuw %"struct.std::_Rb_tree_header", ptr %3, i32 0, i32 0
  %10 = getelementptr inbounds nuw %"struct.std::_Rb_tree_header", ptr %3, i32 0, i32 0
  %11 = getelementptr inbounds nuw %"struct.std::_Rb_tree_node_base", ptr %10, i32 0, i32 3
  store ptr %9, ptr %11, align 8
  %12 = getelementptr inbounds nuw %"struct.std::_Rb_tree_header", ptr %3, i32 0, i32 1
  store i64 0, ptr %12, align 8
  ret void
}

; Function Attrs: mustprogress nounwind uwtable
define linkonce_odr hidden noundef ptr @_ZNSt8_Rb_treeItSt4pairIKtSt10shared_ptrIN6Assimp14MemoryIOStreamEEESt10_Select1stIS6_ESt4lessItESaIS6_EE8_M_beginEv(ptr noundef nonnull align 8 dereferenceable(48) %0) #0 comdat align 2 {
  %2 = alloca ptr, align 8
  store ptr %0, ptr %2, align 8
  %3 = load ptr, ptr %2, align 8
  %4 = call noundef ptr @_ZNKSt8_Rb_treeItSt4pairIKtSt10shared_ptrIN6Assimp14MemoryIOStreamEEESt10_Select1stIS6_ESt4lessItESaIS6_EE9_M_mbeginEv(ptr noundef nonnull align 8 dereferenceable(48) %3) #20
  ret ptr %4
}

; Function Attrs: mustprogress nounwind uwtable
define linkonce_odr hidden void @_ZNSt6vectorIN6Assimp4Ogre13VertexElementESaIS2_EE15_M_erase_at_endEPS2_(ptr noundef nonnull align 8 dereferenceable(24) %0, ptr noundef %1) #0 comdat align 2 personality ptr @__gxx_personality_v0 {
  %3 = alloca ptr, align 8
  %4 = alloca ptr, align 8
  %5 = alloca i64, align 8
  store ptr %0, ptr %3, align 8
  store ptr %1, ptr %4, align 8
  %6 = load ptr, ptr %3, align 8
  call void @llvm.lifetime.start.p0(i64 8, ptr %5) #20
  %7 = getelementptr inbounds nuw %"struct.std::_Vector_base.33", ptr %6, i32 0, i32 0
  %8 = getelementptr inbounds nuw %"struct.std::_Vector_base<Assimp::Ogre::VertexElement, std::allocator<Assimp::Ogre::VertexElement>>::_Vector_impl_data", ptr %7, i32 0, i32 1
  %9 = load ptr, ptr %8, align 8
  %10 = load ptr, ptr %4, align 8
  %11 = ptrtoint ptr %9 to i64
  %12 = ptrtoint ptr %10 to i64
  %13 = sub i64 %11, %12
  %14 = sdiv exact i64 %13, 16
  store i64 %14, ptr %5, align 8
  %15 = load i64, ptr %5, align 8
  %16 = icmp ne i64 %15, 0
  br i1 %16, label %17, label %27

17:                                               ; preds = %2
  %18 = load ptr, ptr %4, align 8
  %19 = getelementptr inbounds nuw %"struct.std::_Vector_base.33", ptr %6, i32 0, i32 0
  %20 = getelementptr inbounds nuw %"struct.std::_Vector_base<Assimp::Ogre::VertexElement, std::allocator<Assimp::Ogre::VertexElement>>::_Vector_impl_data", ptr %19, i32 0, i32 1
  %21 = load ptr, ptr %20, align 8
  %22 = call noundef nonnull align 1 dereferenceable(1) ptr @_ZNSt12_Vector_baseIN6Assimp4Ogre13VertexElementESaIS2_EE19_M_get_Tp_allocatorEv(ptr noundef nonnull align 8 dereferenceable(24) %6) #20
  invoke void @_ZSt8_DestroyIPN6Assimp4Ogre13VertexElementES2_EvT_S4_RSaIT0_E(ptr noundef %18, ptr noundef %21, ptr noundef nonnull align 1 dereferenceable(1) %22)
          to label %23 unwind label %28

23:                                               ; preds = %17
  %24 = load ptr, ptr %4, align 8
  %25 = getelementptr inbounds nuw %"struct.std::_Vector_base.33", ptr %6, i32 0, i32 0
  %26 = getelementptr inbounds nuw %"struct.std::_Vector_base<Assimp::Ogre::VertexElement, std::allocator<Assimp::Ogre::VertexElement>>::_Vector_impl_data", ptr %25, i32 0, i32 1
  store ptr %24, ptr %26, align 8
  br label %27

27:                                               ; preds = %23, %2
  call void @llvm.lifetime.end.p0(i64 8, ptr %5) #20
  ret void

28:                                               ; preds = %17
  %29 = landingpad { ptr, i32 }
          catch ptr null
  %30 = extractvalue { ptr, i32 } %29, 0
  call void @__clang_call_terminate(ptr %30) #22
  unreachable
}

; Function Attrs: mustprogress nounwind uwtable
define linkonce_odr hidden void @_ZNSt8_Rb_treeItSt4pairIKtSt10shared_ptrIN6Assimp14MemoryIOStreamEEESt10_Select1stIS6_ESt4lessItESaIS6_EE5clearEv(ptr noundef nonnull align 8 dereferenceable(48) %0) #0 comdat align 2 personality ptr @__gxx_personality_v0 {
  %2 = alloca ptr, align 8
  store ptr %0, ptr %2, align 8
  %3 = load ptr, ptr %2, align 8
  %4 = call noundef ptr @_ZNSt8_Rb_treeItSt4pairIKtSt10shared_ptrIN6Assimp14MemoryIOStreamEEESt10_Select1stIS6_ESt4lessItESaIS6_EE8_M_beginEv(ptr noundef nonnull align 8 dereferenceable(48) %3) #20
  invoke void @_ZNSt8_Rb_treeItSt4pairIKtSt10shared_ptrIN6Assimp14MemoryIOStreamEEESt10_Select1stIS6_ESt4lessItESaIS6_EE8_M_eraseEPSt13_Rb_tree_nodeIS6_E(ptr noundef nonnull align 8 dereferenceable(48) %3, ptr noundef %4)
          to label %5 unwind label %8

5:                                                ; preds = %1
  %6 = getelementptr inbounds nuw %"class.std::_Rb_tree.38", ptr %3, i32 0, i32 0
  %7 = getelementptr inbounds i8, ptr %6, i64 8
  call void @_ZNSt15_Rb_tree_header8_M_resetEv(ptr noundef nonnull align 8 dereferenceable(40) %7)
  ret void

8:                                                ; preds = %1
  %9 = landingpad { ptr, i32 }
          catch ptr null
  %10 = extractvalue { ptr, i32 } %9, 0
  call void @__clang_call_terminate(ptr %10) #22
  unreachable
}

; Function Attrs: mustprogress nounwind uwtable
define linkonce_odr hidden void @_ZNSt6vectorIN6Assimp4Ogre13VertexElementESaIS2_EE5clearEv(ptr noundef nonnull align 8 dereferenceable(24) %0) #0 comdat align 2 {
  %2 = alloca ptr, align 8
  store ptr %0, ptr %2, align 8
  %3 = load ptr, ptr %2, align 8
  %4 = getelementptr inbounds nuw %"struct.std::_Vector_base.33", ptr %3, i32 0, i32 0
  %5 = getelementptr inbounds nuw %"struct.std::_Vector_base<Assimp::Ogre::VertexElement, std::allocator<Assimp::Ogre::VertexElement>>::_Vector_impl_data", ptr %4, i32 0, i32 0
  %6 = load ptr, ptr %5, align 8
  call void @_ZNSt6vectorIN6Assimp4Ogre13VertexElementESaIS2_EE15_M_erase_at_endEPS2_(ptr noundef nonnull align 8 dereferenceable(24) %3, ptr noundef %6) #20
  ret void
}

; Function Attrs: mustprogress nounwind uwtable
define linkonce_odr hidden void @_ZNSt3mapItSt10shared_ptrIN6Assimp14MemoryIOStreamEESt4lessItESaISt4pairIKtS3_EEE5clearEv(ptr noundef nonnull align 8 dereferenceable(48) %0) #0 comdat align 2 {
  %2 = alloca ptr, align 8
  store ptr %0, ptr %2, align 8
  %3 = load ptr, ptr %2, align 8
  %4 = getelementptr inbounds nuw %"class.std::map.37", ptr %3, i32 0, i32 0
  call void @_ZNSt8_Rb_treeItSt4pairIKtSt10shared_ptrIN6Assimp14MemoryIOStreamEEESt10_Select1stIS6_ESt4lessItESaIS6_EE5clearEv(ptr noundef nonnull align 8 dereferenceable(48) %4) #20
  ret void
}

; Function Attrs: mustprogress nounwind uwtable
define hidden void @_ZN6Assimp4Ogre10VertexData5ResetEv(ptr noundef nonnull align 8 dereferenceable(200) %0) #0 align 2 {
  %2 = alloca ptr, align 8
  store ptr %0, ptr %2, align 8
  %3 = load ptr, ptr %2, align 8
  %4 = getelementptr inbounds nuw %"class.Assimp::Ogre::VertexData", ptr %3, i32 0, i32 2
  call void @_ZNSt3mapItSt10shared_ptrIN6Assimp14MemoryIOStreamEESt4lessItESaISt4pairIKtS3_EEE5clearEv(ptr noundef nonnull align 8 dereferenceable(48) %4) #20
  %5 = getelementptr inbounds nuw %"class.Assimp::Ogre::VertexData", ptr %3, i32 0, i32 1
  call void @_ZNSt6vectorIN6Assimp4Ogre13VertexElementESaIS2_EE5clearEv(ptr noundef nonnull align 8 dereferenceable(24) %5) #20
  ret void
}