; Function Attrs: mustprogress nounwind uwtable
define hidden void @_ZN6Assimp4Ogre10VertexData5ResetEv(ptr noundef nonnull align 8 dereferenceable(200) %0) local_unnamed_addr #6 align 2 personality ptr @__gxx_personality_v0 {
  %2 = getelementptr inbounds nuw i8, ptr %0, i64 152
  %3 = getelementptr inbounds nuw i8, ptr %0, i64 168
  %4 = load ptr, ptr %3, align 8
  invoke void @_ZNSt8_Rb_treeItSt4pairIKtSt10shared_ptrIN6Assimp14MemoryIOStreamEEESt10_Select1stIS6_ESt4lessItESaIS6_EE8_M_eraseEPSt13_Rb_tree_nodeIS6_E(ptr noundef nonnull align 8 dereferenceable(48) %2, ptr noundef %4)
          to label %_ZNSt3mapItSt10shared_ptrIN6Assimp14MemoryIOStreamEESt4lessItESaISt4pairIKtS3_EEE5clearEv.exit unwind label %5

5:                                                ; preds = %1
  %6 = landingpad { ptr, i32 }
          catch ptr null
  %7 = extractvalue { ptr, i32 } %6, 0
  tail call void @__clang_call_terminate(ptr %7) #35
  unreachable

_ZNSt3mapItSt10shared_ptrIN6Assimp14MemoryIOStreamEESt4lessItESaISt4pairIKtS3_EEE5clearEv.exit: ; preds = %1
  %8 = getelementptr inbounds nuw i8, ptr %0, i64 160
  store ptr null, ptr %3, align 8
  %9 = getelementptr inbounds nuw i8, ptr %0, i64 176
  store ptr %8, ptr %9, align 8
  %10 = getelementptr inbounds nuw i8, ptr %0, i64 184
  store ptr %8, ptr %10, align 8
  %11 = getelementptr inbounds nuw i8, ptr %0, i64 192
  store i64 0, ptr %11, align 8
  %12 = getelementptr inbounds nuw i8, ptr %0, i64 128
  %13 = load ptr, ptr %12, align 8
  %14 = getelementptr inbounds nuw i8, ptr %0, i64 136
  %15 = load ptr, ptr %14, align 8
  %.not.i.i = icmp eq ptr %15, %13
  br i1 %.not.i.i, label %_ZNSt6vectorIN6Assimp4Ogre13VertexElementESaIS2_EE5clearEv.exit, label %16

16:                                               ; preds = %_ZNSt3mapItSt10shared_ptrIN6Assimp14MemoryIOStreamEESt4lessItESaISt4pairIKtS3_EEE5clearEv.exit
  store ptr %13, ptr %14, align 8
  br label %_ZNSt6vectorIN6Assimp4Ogre13VertexElementESaIS2_EE5clearEv.exit

_ZNSt6vectorIN6Assimp4Ogre13VertexElementESaIS2_EE5clearEv.exit: ; preds = %_ZNSt3mapItSt10shared_ptrIN6Assimp14MemoryIOStreamEESt4lessItESaISt4pairIKtS3_EEE5clearEv.exit, %16
  ret void
}